; Function Attrs: nounwind uwtable
define internal range(i32 0, 2) i32 @ml_kem_validate(ptr noundef %0, i32 noundef %1, i32 %2) #0 {
  %4 = tail call i32 @ossl_prov_is_running() #7
  %5 = icmp eq i32 %4, 0
  %6 = icmp eq ptr %0, null
  %or.cond.i = or i1 %6, %5
  br i1 %or.cond.i, label %ml_kem_has.exit.thread, label %7

7:                                                ; preds = %3
  %8 = and i32 %1, 3
  switch i32 %8, label %ml_kem_has.exit [
    i32 0, label %ml_kem_has.exit.thread
    i32 2, label %ml_kem_has.exit.thread11
  ]

ml_kem_has.exit:                                  ; preds = %7
  %9 = getelementptr inbounds nuw i8, ptr %0, i64 80
  %10 = load ptr, ptr %9, align 8, !tbaa !36
  %.not10 = icmp eq ptr %10, null
  br i1 %.not10, label %ml_kem_has.exit.thread, label %ml_kem_has.exit.thread7

ml_kem_has.exit.thread11:                         ; preds = %7
  %11 = getelementptr inbounds nuw i8, ptr %0, i64 64
  %12 = load ptr, ptr %11, align 8, !tbaa !36
  %.not1013 = icmp ne ptr %12, null
  %spec.select = zext i1 %.not1013 to i32
  br label %ml_kem_has.exit.thread

ml_kem_has.exit.thread7:                          ; preds = %ml_kem_has.exit
  %13 = icmp eq i32 %8, 3
  br i1 %13, label %14, label %ml_kem_has.exit.thread

14:                                               ; preds = %ml_kem_has.exit.thread7
  %15 = tail call fastcc i32 @ml_kem_pairwise_test(ptr noundef nonnull %0)
  br label %ml_kem_has.exit.thread

ml_kem_has.exit.thread:                           ; preds = %ml_kem_has.exit.thread11, %7, %3, %ml_kem_has.exit.thread7, %ml_kem_has.exit, %14
  %.0 = phi i32 [ %15, %14 ], [ 0, %ml_kem_has.exit ], [ 1, %ml_kem_has.exit.thread7 ], [ 0, %3 ], [ 1, %7 ], [ %spec.select, %ml_kem_has.exit.thread11 ]
  ret i32 %.0
}